EXPORTS
    Cleanup @1
    GetLastError @2
    GetVersion @3
    Initialize @4
    _ZN8RFDevice11RF060Device10GetMeasureEhPtS1_ @5
    _ZN8RFDevice11RF060Device8HelloCmdEhPNS_20_RFCOM_HELLO_ANSWER_E @6
    _ZN8RFDevice11RF060Device8OpenPortEPKcm @7
    _ZN8RFDevice11RF060DeviceC1Ev @8
    _ZN8RFDevice11RF060DeviceC2Ev @9
    _ZN8RFDevice11RF060DeviceD0Ev @10
    _ZN8RFDevice11RF060DeviceD1Ev @11
    _ZN8RFDevice11RF060DeviceD2Ev @12
    _ZN8RFDevice11RF085Device10DisconnectEv @13
    _ZN8RFDevice11RF085Device11MotorAtHomeEih @14
    _ZN8RFDevice11RF085Device11MotorEnableEih @15
    _ZN8RFDevice11RF085Device11MotorGetACCEih @16
    _ZN8RFDevice11RF085Device11MotorGetDCCEih @17
    _ZN8RFDevice11RF085Device11MotorGetFSSEih @18
    _ZN8RFDevice11RF085Device11MotorGoHomeEh @19
    _ZN8RFDevice11RF085Device11MotorSetACCEtih @20
    _ZN8RFDevice11RF085Device11MotorSetDCCEtih @21
    _ZN8RFDevice11RF085Device11MotorSetFSSEtih @22
    _ZN8RFDevice11RF085Device12GetStateLED1Ei @23
    _ZN8RFDevice11RF085Device12GetStateLED2Ei @24
    _ZN8RFDevice11RF085Device12GetStateLED3Ei @25
    _ZN8RFDevice11RF085Device12GetStateOUT1Ei @26
    _ZN8RFDevice11RF085Device12GetStateOUT2Ei @27
    _ZN8RFDevice11RF085Device12GetStateOUT3Ei @28
    _ZN8RFDevice11RF085Device12GetStateOUT4Ei @29
    _ZN8RFDevice11RF085Device12GetStateOUT5Ei @30
    _ZN8RFDevice11RF085Device12GetStateOUT6Ei @31
    _ZN8RFDevice11RF085Device12SetStateLED1Eii @32
    _ZN8RFDevice11RF085Device12SetStateLED2Eii @33
    _ZN8RFDevice11RF085Device12SetStateLED3Eii @34
    _ZN8RFDevice11RF085Device12SetStateOUT1Eii @35
    _ZN8RFDevice11RF085Device12SetStateOUT2Eii @36
    _ZN8RFDevice11RF085Device12SetStateOUT3Eii @37
    _ZN8RFDevice11RF085Device12SetStateOUT4Eii @38
    _ZN8RFDevice11RF085Device12SetStateOUT5Eii @39
    _ZN8RFDevice11RF085Device12SetStateOUT6Eii @40
    _ZN8RFDevice11RF085Device13FlushSockRecvEi @41
    _ZN8RFDevice11RF085Device13MotorGetAlarmEih @42
    _ZN8RFDevice11RF085Device13MotorGetSpeedEih @43
    _ZN8RFDevice11RF085Device13MotorIsMovingEih @44
    _ZN8RFDevice11RF085Device13MotorSetAlarmEtih @45
    _ZN8RFDevice11RF085Device13MotorSetSpeedEtih @46
    _ZN8RFDevice11RF085Device13ReadParamsLEDEv @47
    _ZN8RFDevice11RF085Device13ReadParamsOUTEv @48
    _ZN8RFDevice11RF085Device14MotorReadParamEhhPhh @49
    _ZN8RFDevice11RF085Device14PopulateParamsEv @50
    _ZN8RFDevice11RF085Device14WriteParamsLEDEv @51
    _ZN8RFDevice11RF085Device14WriteParamsOUTEv @52
    _ZN8RFDevice11RF085Device15MotorReadParamsEh @53
    _ZN8RFDevice11RF085Device15MotorReadStatusEh @54
    _ZN8RFDevice11RF085Device15MotorWriteParamEhhhh @55
    _ZN8RFDevice11RF085Device16MotorFlushParamsEh @56
    _ZN8RFDevice11RF085Device16MotorWriteParamsEh @57
    _ZN8RFDevice11RF085Device17SetLocalIPAddressEPKc @58
    _ZN8RFDevice11RF085Device18MotorRestoreParamsEh @59
    _ZN8RFDevice11RF085Device18SetDeviceIPAddressEPKc @60
    _ZN8RFDevice11RF085Device7ConnectEPKc @61
    _ZN8RFDevice11RF085Device7ConnectEv @62
    _ZN8RFDevice11RF085Device9MotorMoveEih @63
    _ZN8RFDevice11RF085Device9MotorStopEh @64
    _ZN8RFDevice11RF085DeviceC1EPKc @65
    _ZN8RFDevice11RF085DeviceC1EPKcS2_ @66
    _ZN8RFDevice11RF085DeviceC1Ev @67
    _ZN8RFDevice11RF085DeviceC2EPKc @68
    _ZN8RFDevice11RF085DeviceC2EPKcS2_ @69
    _ZN8RFDevice11RF085DeviceC2Ev @70
    _ZN8RFDevice11RF085DeviceD0Ev @71
    _ZN8RFDevice11RF085DeviceD1Ev @72
    _ZN8RFDevice11RF085DeviceD2Ev @73
    _ZN8RFDevice11RF096Device10DisconnectEv @74
    _ZN8RFDevice11RF096Device10StopStreamEv @75
    _ZN8RFDevice11RF096Device10WriteParamENS0_9ParameterEPv @76
    _ZN8RFDevice11RF096Device10WriteParamENS0_9ParameterEh @77
    _ZN8RFDevice11RF096Device10WriteParamENS0_9ParameterEm @78
    _ZN8RFDevice11RF096Device10WriteParamENS0_9ParameterEt @79
    _ZN8RFDevice11RF096Device11ExecCommandEhPKhh @80
    _ZN8RFDevice11RF096Device11FlushParamsEv @81
    _ZN8RFDevice11RF096Device11StartStreamEv @82
    _ZN8RFDevice11RF096Device13GetSubnetMaskEPh @83
    _ZN8RFDevice11RF096Device13RestoreParamsEv @84
    _ZN8RFDevice11RF096Device13SetNetAddressEh @85
    _ZN8RFDevice11RF096Device13SetSubnetMaskEPKh @86
    _ZN8RFDevice11RF096Device15ReadCustomParamEhPKvh @87
    _ZN8RFDevice11RF096Device15SetEnableSensorEi @88
    _ZN8RFDevice11RF096Device16GetEnabledSensorEPi @89
    _ZN8RFDevice11RF096Device16GetScanningStepsEPm @90
    _ZN8RFDevice11RF096Device16GetSingleMeasureEPv @91
    _ZN8RFDevice11RF096Device16GetSourceAddressEPh @92
    _ZN8RFDevice11RF096Device16SetScanningStepsEm @93
    _ZN8RFDevice11RF096Device16SetSourceAddressEPKh @94
    _ZN8RFDevice11RF096Device16WriteCustomParamEhPKvh @95
    _ZN8RFDevice11RF096Device17GetGatewayAddressEPh @96
    _ZN8RFDevice11RF096Device17GetRecordMeasuresEtPv @97
    _ZN8RFDevice11RF096Device17GetStreamMeasuresEPv @98
    _ZN8RFDevice11RF096Device17SetGatewayAddressEPKh @99
    _ZN8RFDevice11RF096Device20ResetParamsToFactoryEv @100
    _ZN8RFDevice11RF096Device21GetDestinationAddressEPh @101
    _ZN8RFDevice11RF096Device21SetDestinationAddressEPKh @102
    _ZN8RFDevice11RF096Device26GetNormalizedSingleMeasureEPfS1_ @103
    _ZN8RFDevice11RF096Device27GetNormalizedRecordMeasuresEtPfS1_ @104
    _ZN8RFDevice11RF096Device27GetNormalizedStreamMeasuresEPfS1_ @105
    _ZN8RFDevice11RF096Device5HelloEv @106
    _ZN8RFDevice11RF096Device7ConnectEPKctt @107
    _ZN8RFDevice11RF096Device7ConnectEv @108
    _ZN8RFDevice11RF096Device9ReadParamENS0_9ParameterEPv @109
    _ZN8RFDevice11RF096DeviceC1Ev @110
    _ZN8RFDevice11RF096DeviceC2Ev @111
    _ZN8RFDevice11RF096DeviceD0Ev @112
    _ZN8RFDevice11RF096DeviceD1Ev @113
    _ZN8RFDevice11RF096DeviceD2Ev @114
    _ZN8RFDevice11RF25xDevice10StopStreamEv @115
    _ZN8RFDevice11RF25xDevice11GetTimeoutsEPmS1_S1_S1_S1_ @116
    _ZN8RFDevice11RF25xDevice11SetTimeoutsEmmmmm @117
    _ZN8RFDevice11RF25xDevice11StartStreamEv @118
    _ZN8RFDevice11RF25xDevice12EnableSensorEi @119
    _ZN8RFDevice11RF25xDevice12GetBaundRateEv @120
    _ZN8RFDevice11RF25xDevice12GetUpLimitOCEv @121
    _ZN8RFDevice11RF25xDevice12SetBaundRateEm @122
    _ZN8RFDevice11RF25xDevice12SetUpLimitOCEm @123
    _ZN8RFDevice11RF25xDevice13GetLowLimitOCEv @124
    _ZN8RFDevice11RF25xDevice13GetPowerStateEv @125
    _ZN8RFDevice11RF25xDevice13GetSampleModeEv @126
    _ZN8RFDevice11RF25xDevice13NetAddressSetEv @127
    _ZN8RFDevice11RF25xDevice13SetLowLimitOCEm @128
    _ZN8RFDevice11RF25xDevice15IsSampleModeClkEv @129
    _ZN8RFDevice11RF25xDevice16GetSingleMeasureEPm @130
    _ZN8RFDevice11RF25xDevice16GetStreamMeasureEPm @131
    _ZN8RFDevice11RF25xDevice17GetEndAnalogRangeEv @132
    _ZN8RFDevice11RF25xDevice17GetNetworkAddressEv @133
    _ZN8RFDevice11RF25xDevice17GetSamplingPeriodEv @134
    _ZN8RFDevice11RF25xDevice17SetEndAnalogRangeEm @135
    _ZN8RFDevice11RF25xDevice17SetNetworkAddressEh @136
    _ZN8RFDevice11RF25xDevice17SetSamplingPeriodEm @137
    _ZN8RFDevice11RF25xDevice18BindNetworkAddressEh @138
    _ZN8RFDevice11RF25xDevice18GetCoordStartPointEv @139
    _ZN8RFDevice11RF25xDevice18SetCoordStartPointEm @140
    _ZN8RFDevice11RF25xDevice18SetSampleModeToClkEv @141
    _ZN8RFDevice11RF25xDevice18WriteParameterBOOLEtPii @142
    _ZN8RFDevice11RF25xDevice18WriteParameterBYTEEtPhh @143
    _ZN8RFDevice11RF25xDevice19GetAnalogOutScalingEv @144
    _ZN8RFDevice11RF25xDevice19GetBeginAnalogRangeEv @145
    _ZN8RFDevice11RF25xDevice19GetLogicOutPolarityEv @146
    _ZN8RFDevice11RF25xDevice19SetAnalogOutScalingEm @147
    _ZN8RFDevice11RF25xDevice19SetBeginAnalogRangeEm @148
    _ZN8RFDevice11RF25xDevice19SetLogicOutPolarityEm @149
    _ZN8RFDevice11RF25xDevice19SetSampleModeToTimeEv @150
    _ZN8RFDevice11RF25xDevice19WriteParameterDWORDEtPmm @151
    _ZN8RFDevice11RF25xDevice22IsUpLimitOutPolarityHAEv @152
    _ZN8RFDevice11RF25xDevice23IsLowLimitOutPolarityHAEv @153
    _ZN8RFDevice11RF25xDevice23SetUpLimitOutPolarityHAEv @154
    _ZN8RFDevice11RF25xDevice23SetUpLimitOutPolarityLAEv @155
    _ZN8RFDevice11RF25xDevice24SetLowLimitOutPolarityHAEv @156
    _ZN8RFDevice11RF25xDevice24SetLowLimitOutPolarityLAEv @157
    _ZN8RFDevice11RF25xDevice8HelloCmdEv @158
    _ZN8RFDevice11RF25xDevice8OpenPortEPKcm @159
    _ZN8RFDevice11RF25xDevice9GetParamsEv @160
    _ZN8RFDevice11RF25xDevice9SetSampleEh @161
    _ZN8RFDevice11RF25xDeviceC1Ev @162
    _ZN8RFDevice11RF25xDeviceC2Ev @163
    _ZN8RFDevice11RF25xDeviceD0Ev @164
    _ZN8RFDevice11RF25xDeviceD1Ev @165
    _ZN8RFDevice11RF25xDeviceD2Ev @166
    _ZN8RFDevice11RF603Device11GetCanExtIDEv @167
    _ZN8RFDevice11RF603Device11GetCanSpeedEv @168
    _ZN8RFDevice11RF603Device11GetCanStateEv @169
    _ZN8RFDevice11RF603Device11GetCanStdIDEv @170
    _ZN8RFDevice11RF603Device11GetEthStateEv @171
    _ZN8RFDevice11RF603Device11GetSourceIPEv @172
    _ZN8RFDevice11RF603Device11SetCanExtIDEm @173
    _ZN8RFDevice11RF603Device11SetCanSpeedEm @174
    _ZN8RFDevice11RF603Device11SetCanStdIDEm @175
    _ZN8RFDevice11RF603Device11SetSourceIPEPh @176
    _ZN8RFDevice11RF603Device11SetSourceIPEm @177
    _ZN8RFDevice11RF603Device12GetGatewayIPEv @178
    _ZN8RFDevice11RF603Device12SetGatewayIPEPh @179
    _ZN8RFDevice11RF603Device12SetGatewayIPEm @180
    _ZN8RFDevice11RF603Device13GetSubnetMaskEv @181
    _ZN8RFDevice11RF603Device13SetSubnetMaskEPh @182
    _ZN8RFDevice11RF603Device13SetSubnetMaskEm @183
    _ZN8RFDevice11RF603Device16GetDestinationIPEv @184
    _ZN8RFDevice11RF603Device16SetDestinationIPEPh @185
    _ZN8RFDevice11RF603Device16SetDestinationIPEm @186
    _ZN8RFDevice11RF603Device17SetCanIdTypeToExtEv @187
    _ZN8RFDevice11RF603Device17SetCanIdTypeToStdEv @188
    _ZN8RFDevice11RF603Device24EthernetGetStreamMeasureEPNS_18_RF60x_UDP_PACKET_E @189
    _ZN8RFDevice11RF603Device24GetHumanReadableSourceIPEv @190
    _ZN8RFDevice11RF603Device25GetHumanReadableGatewayIPEv @191
    _ZN8RFDevice11RF603Device26GetHumanReadableSubnetMaskEv @192
    _ZN8RFDevice11RF603Device29GetHumanReadableDestinationIPEv @193
    _ZN8RFDevice11RF603Device34EthernetGetNormalizedStreamMeasureEPf @194
    _ZN8RFDevice11RF603Device8GetCanIdEv @195
    _ZN8RFDevice11RF603Device9EnableCanEi @196
    _ZN8RFDevice11RF603Device9EnableEthEi @197
    _ZN8RFDevice11RF603DeviceC1Ev @198
    _ZN8RFDevice11RF603DeviceC2Ev @199
    _ZN8RFDevice11RF603DeviceD0Ev @200
    _ZN8RFDevice11RF603DeviceD1Ev @201
    _ZN8RFDevice11RF603DeviceD2Ev @202
    _ZN8RFDevice11RF605DeviceC1Ev @203
    _ZN8RFDevice11RF605DeviceC2Ev @204
    _ZN8RFDevice11RF605DeviceD0Ev @205
    _ZN8RFDevice11RF605DeviceD1Ev @206
    _ZN8RFDevice11RF605DeviceD2Ev @207
    _ZN8RFDevice11RF60xDevice10ParamsReadEv @208
    _ZN8RFDevice11RF60xDevice11GetTimeoutsEPmS1_S1_S1_S1_ @209
    _ZN8RFDevice11RF60xDevice11SetTimeoutsEmmmmm @210
    _ZN8RFDevice11RF60xDevice12EnableSensorEi @211
    _ZN8RFDevice11RF60xDevice12GetAnalogOutEv @212
    _ZN8RFDevice11RF60xDevice12GetBaundRateEv @213
    _ZN8RFDevice11RF60xDevice12SetBaundRateEm @214
    _ZN8RFDevice11RF60xDevice13GetPowerStateEv @215
    _ZN8RFDevice11RF60xDevice15EnableAnalogOutEi @216
    _ZN8RFDevice11RF60xDevice15GetAverageCountEv @217
    _ZN8RFDevice11RF60xDevice15GetLogicOutModeEv @218
    _ZN8RFDevice11RF60xDevice15IsSampleModeClkEv @219
    _ZN8RFDevice11RF60xDevice15SetAverageCountEm @220
    _ZN8RFDevice11RF60xDevice15SetCANModeByClkEv @221
    _ZN8RFDevice11RF60xDevice16EthernetOpenPortEt @222
    _ZN8RFDevice11RF60xDevice16GetSingleMeasureEPt @223
    _ZN8RFDevice11RF60xDevice16IsCANModeBySynchEv @224
    _ZN8RFDevice11RF60xDevice17EthernetClosePortEv @225
    _ZN8RFDevice11RF60xDevice17GetEndAnalogRangeEv @226
    _ZN8RFDevice11RF60xDevice17GetNetworkAddressEv @227
    _ZN8RFDevice11RF60xDevice17GetSamplingPeriodEv @228
    _ZN8RFDevice11RF60xDevice17GetStreamMeasuresEPNS_20_RF60x_STREAM_VALUE_EmPmS3_ @229
    _ZN8RFDevice11RF60xDevice17GetZeroPointValueEv @230
    _ZN8RFDevice11RF60xDevice17SetEndAnalogRangeEm @231
    _ZN8RFDevice11RF60xDevice17SetNetworkAddressEh @232
    _ZN8RFDevice11RF60xDevice17SetSamplingPeriodEm @233
    _ZN8RFDevice11RF60xDevice17SetZeroPointValueEm @234
    _ZN8RFDevice11RF60xDevice18BindNetworkAddressEh @235
    _ZN8RFDevice11RF60xDevice18EthernetSetTimeoutEm @236
    _ZN8RFDevice11RF60xDevice18GetResultDelayTimeEv @237
    _ZN8RFDevice11RF60xDevice18GetSampleAveragingEv @238
    _ZN8RFDevice11RF60xDevice18SetResultDelayTimeEm @239
    _ZN8RFDevice11RF60xDevice18SetSampleAveragingEh @240
    _ZN8RFDevice11RF60xDevice18SetSampleModeToClkEv @241
    _ZN8RFDevice11RF60xDevice19GetAccumulationTimeEv @242
    _ZN8RFDevice11RF60xDevice19GetBeginAnalogRangeEv @243
    _ZN8RFDevice11RF60xDevice19IsAnalogOutModeFullEv @244
    _ZN8RFDevice11RF60xDevice19IsAverageModeByTimeEv @245
    _ZN8RFDevice11RF60xDevice19SetAccumulationTimeEm @246
    _ZN8RFDevice11RF60xDevice19SetBeginAnalogRangeEm @247
    _ZN8RFDevice11RF60xDevice19SetCANModeByRequestEv @248
    _ZN8RFDevice11RF60xDevice19SetSampleModeToTimeEv @249
    _ZN8RFDevice11RF60xDevice20GetNormalizedMeasureEv @250
    _ZN8RFDevice11RF60xDevice20SetAverageModeByTimeEv @251
    _ZN8RFDevice11RF60xDevice24SetAverageModeByQuantityEv @252
    _ZN8RFDevice11RF60xDevice26SetAnalogOutModeToFullModeEv @253
    _ZN8RFDevice11RF60xDevice27SetAnalogOutModeToFrameModeEv @254
    _ZN8RFDevice11RF60xDevice27SetLogicOutModeToLaserPowerEv @255
    _ZN8RFDevice11RF60xDevice27SetLogicOutModeToResZeroingEv @256
    _ZN8RFDevice11RF60xDevice30SetLogicOutModeToRangeOverflowEv @257
    _ZN8RFDevice11RF60xDevice38SetLogicOutModeToMutualSynchronizationEv @258
    _ZN8RFDevice11RF60xDevice8HelloCmdEv @259
    _ZN8RFDevice11RF60xDevice9CustomCmdEhPvt @260
    _ZN8RFDevice11RF60xDeviceC1Ev @261
    _ZN8RFDevice11RF60xDeviceC2Ev @262
    _ZN8RFDevice11RF60xDeviceD0Ev @263
    _ZN8RFDevice11RF60xDeviceD1Ev @264
    _ZN8RFDevice11RF60xDeviceD2Ev @265
    _ZN8RFDevice11RF620Device10DisconnectEv @266
    _ZN8RFDevice11RF620Device10ReadParamsEPv @267
    _ZN8RFDevice11RF620Device10ReadParamsEv @268
    _ZN8RFDevice11RF620Device10UDPConnectEtPKc @269
    _ZN8RFDevice11RF620Device11FlushParamsEi @270
    _ZN8RFDevice11RF620Device11GetDevBlockEv @271
    _ZN8RFDevice11RF620Device11WriteParamsEPv @272
    _ZN8RFDevice11RF620Device11WriteParamsEv @273
    _ZN8RFDevice11RF620Device12UDPGetResultEPv @274
    _ZN8RFDevice11RF620Device13GetLaserLevelEv @275
    _ZN8RFDevice11RF620Device13SetLaserLevelEh @276
    _ZN8RFDevice11RF620Device13UDPDisconnectEv @277
    _ZN8RFDevice11RF620Device14GetNetworkMaskEv @278
    _ZN8RFDevice11RF620Device14GetWindowWidthEv @279
    _ZN8RFDevice11RF620Device14PopulateParamsEv @280
    _ZN8RFDevice11RF620Device14SetNetworkMaskEPh @281
    _ZN8RFDevice11RF620Device14SetWindowWidthEh @282
    _ZN8RFDevice11RF620Device15CloneParametersEPS0_ @283
    _ZN8RFDevice11RF620Device15GetBaseDistanceEv @284
    _ZN8RFDevice11RF620Device15GetExposureTimeEv @285
    _ZN8RFDevice11RF620Device15GetLeftBoundaryEv @286
    _ZN8RFDevice11RF620Device15GetSerialNumberEv @287
    _ZN8RFDevice11RF620Device15GetUDPFrequencyEv @288
    _ZN8RFDevice11RF620Device15GetWindowHeightEv @289
    _ZN8RFDevice11RF620Device15SetExposureTimeEt @290
    _ZN8RFDevice11RF620Device15SetLeftBoundaryEh @291
    _ZN8RFDevice11RF620Device15SetUDPFrequencyEh @292
    _ZN8RFDevice11RF620Device15SetWindowHeightEh @293
    _ZN8RFDevice11RF620Device16GetHostIPAddressEv @294
    _ZN8RFDevice11RF620Device16GetRotationAngleEv @295
    _ZN8RFDevice11RF620Device16GetUpperBoundaryEv @296
    _ZN8RFDevice11RF620Device16SetHostIPAddressEPh @297
    _ZN8RFDevice11RF620Device16SetRotationAngleEs @298
    _ZN8RFDevice11RF620Device16SetUpperBoundaryEh @299
    _ZN8RFDevice11RF620Device16UDPPacketCounterEPv @300
    _ZN8RFDevice11RF620Device17GetHostPortNumberEv @301
    _ZN8RFDevice11RF620Device17SetHostPortNumberEt @302
    _ZN8RFDevice11RF620Device17UDPPopulateParamsEv @303
    _ZN8RFDevice11RF620Device18GetDeviceIPAddressEv @304
    _ZN8RFDevice11RF620Device18GetFirmwareVersionEv @305
    _ZN8RFDevice11RF620Device18SetDeviceIPAddressEPh @306
    _ZN8RFDevice11RF620Device19GetMeasurementDelayEv @307
    _ZN8RFDevice11RF620Device19GetNormalizedResultEPfPti @308
    _ZN8RFDevice11RF620Device19GetNormalizedResultEPmPti @309
    _ZN8RFDevice11RF620Device19SetMeasurementDelayEh @310
    _ZN8RFDevice11RF620Device20GetMeasurementRangeZEv @311
    _ZN8RFDevice11RF620Device21ConvertResultToPointsEPvPfPti @312
    _ZN8RFDevice11RF620Device21ConvertResultToPointsEPvPmPti @313
    _ZN8RFDevice11RF620Device22GetCapsLaserModulationEv @314
    _ZN8RFDevice11RF620Device22UDPGetNormalizedResultEPfPti @315
    _ZN8RFDevice11RF620Device22UDPGetNormalizedResultEPmPti @316
    _ZN8RFDevice11RF620Device23GetMeasurementRangeXEMREv @317
    _ZN8RFDevice11RF620Device23GetMeasurementRangeXSMREv @318
    _ZN8RFDevice11RF620Device23GetSignalProcessingTimeEv @319
    _ZN8RFDevice11RF620Device23SetSignalProcessingTimeEt @320
    _ZN8RFDevice11RF620Device24GetExternalSignalDivisorEv @321
    _ZN8RFDevice11RF620Device24SetExternalSignalDivisorEh @322
    _ZN8RFDevice11RF620Device25GetAnalogueOutputSyncEdgeEv @323
    _ZN8RFDevice11RF620Device25GetCapsExternalResultSyncEv @324
    _ZN8RFDevice11RF620Device25GetExternalResultSyncEdgeEv @325
    _ZN8RFDevice11RF620Device25GetResultInclinationAngleEv @326
    _ZN8RFDevice11RF620Device25SetAnalogueOutputSyncEdgeEi @327
    _ZN8RFDevice11RF620Device25SetExternalResultSyncEdgeEi @328
    _ZN8RFDevice11RF620Device27GetHumanReadableNetworkMaskEv @329
    _ZN8RFDevice11RF620Device28GetAnalogueOutputSyncEnabledEv @330
    _ZN8RFDevice11RF620Device28GetExternalResultSyncEnabledEv @331
    _ZN8RFDevice11RF620Device28SetAnalogueOutputSyncEnabledEi @332
    _ZN8RFDevice11RF620Device28SetExternalResultSyncEnabledEi @333
    _ZN8RFDevice11RF620Device29GetHumanReadableHostIPAddressEv @334
    _ZN8RFDevice11RF620Device30GetAnalogueOutputTTL_OUT0LevelEv @335
    _ZN8RFDevice11RF620Device30GetCapsAnalogueOutputByCurrentEv @336
    _ZN8RFDevice11RF620Device30GetCapsAnalogueOutputByVoltageEv @337
    _ZN8RFDevice11RF620Device30GetCapsExternalMeasurementSyncEv @338
    _ZN8RFDevice11RF620Device30GetExternalMeasurementSyncEdgeEv @339
    _ZN8RFDevice11RF620Device30SetAnalogueOutputTTL_OUT0LevelEi @340
    _ZN8RFDevice11RF620Device30SetExternalMeasurementSyncEdgeEi @341
    _ZN8RFDevice11RF620Device31GetAnalogueOutputNumberOfPointsEv @342
    _ZN8RFDevice11RF620Device31GetHumanReadableDeviceIPAddressEv @343
    _ZN8RFDevice11RF620Device31SetAnalogueOutputNumberOfPointsEh @344
    _ZN8RFDevice11RF620Device32GetAnalogueOutputPointHoldupTimeEv @345
    _ZN8RFDevice11RF620Device32SetAnalogueOutputPointHoldupTimeEh @346
    _ZN8RFDevice11RF620Device33GetExternalMeasurementSyncEnabledEv @347
    _ZN8RFDevice11RF620Device33SetExternalMeasurementSyncEnabledEi @348
    _ZN8RFDevice11RF620Device7ConnectEPNS_20_UDP_DEVINFOBLOCK_PCE @349
    _ZN8RFDevice11RF620Device7ConnectEv @350
    _ZN8RFDevice11RF620Device8GetImageEPv @351
    _ZN8RFDevice11RF620Device8PingTestEv @352
    _ZN8RFDevice11RF620Device9CalcAngleEPv @353
    _ZN8RFDevice11RF620Device9GetResultEPv @354
    _ZN8RFDevice11RF620DeviceC1EPNS_20_UDP_DEVINFOBLOCK_PCE @355
    _ZN8RFDevice11RF620DeviceC1Ev @356
    _ZN8RFDevice11RF620DeviceC2EPNS_20_UDP_DEVINFOBLOCK_PCE @357
    _ZN8RFDevice11RF620DeviceC2Ev @358
    _ZN8RFDevice11RF620DeviceD0Ev @359
    _ZN8RFDevice11RF620DeviceD1Ev @360
    _ZN8RFDevice11RF620DeviceD2Ev @361
    _ZN8RFDevice11RF625Device10GetExtendsEPv @362
    _ZN8RFDevice11RF625Device10ReadParamsEPv @363
    _ZN8RFDevice11RF625Device10ReadParamsEv @364
    _ZN8RFDevice11RF625Device10SetKeepTCPEit @365
    _ZN8RFDevice11RF625Device11GetSyncFreqEv @366
    _ZN8RFDevice11RF625Device11GetSyncTypeEv @367
    _ZN8RFDevice11RF625Device11WriteParamsEi @368
    _ZN8RFDevice11RF625Device12GetEnableDHSEv @369
    _ZN8RFDevice11RF625Device12GetFrequencyEv @370
    _ZN8RFDevice11RF625Device12GetSyncDelayEv @371
    _ZN8RFDevice11RF625Device12GetXInvertedEv @372
    _ZN8RFDevice11RF625Device12GetZInvertedEv @373
    _ZN8RFDevice11RF625Device12SetAveragingEi @374
    _ZN8RFDevice11RF625Device12SetEnableDHSEi @375
    _ZN8RFDevice11RF625Device12SetFrequencyEt @376
    _ZN8RFDevice11RF625Device12SetUDPStreamEi @377
    _ZN8RFDevice11RF625Device12SetXInvertedEi @378
    _ZN8RFDevice11RF625Device12SetZInvertedEi @379
    _ZN8RFDevice11RF625Device13GetROIEnabledEv @380
    _ZN8RFDevice11RF625Device13SetLaserLevelEh @381
    _ZN8RFDevice11RF625Device14GetFilterParamEv @382
    _ZN8RFDevice11RF625Device14GetKeepTCPTimeEv @383
    _ZN8RFDevice11RF625Device14GetSmoothParamEv @384
    _ZN8RFDevice11RF625Device14GetSyncDividerEv @385
    _ZN8RFDevice11RF625Device14GetSyncMeasureEv @386
    _ZN8RFDevice11RF625Device14PopulateParamsEv @387
    _ZN8RFDevice11RF625Device15GetAutoExposureEPt @388
    _ZN8RFDevice11RF625Device15GetExposureTimeEv @389
    _ZN8RFDevice11RF625Device15GetSyncChannelsEv @390
    _ZN8RFDevice11RF625Device15GetWindowHeightEv @391
    _ZN8RFDevice11RF625Device15SetExposureTimeEt @392
    _ZN8RFDevice11RF625Device15SetWindowHeightEh @393
    _ZN8RFDevice11RF625Device15SetWindowHeightEt @394
    _ZN8RFDevice11RF625Device16GetAnalogEnabledEv @395
    _ZN8RFDevice11RF625Device16GetDifBrightnessEv @396
    _ZN8RFDevice11RF625Device16GetFilterEnabledEv @397
    _ZN8RFDevice11RF625Device16GetInterpolationEv @398
    _ZN8RFDevice11RF625Device16GetSmoothEnabledEv @399
    _ZN8RFDevice11RF625Device16GetTCPPortNumberEv @400
    _ZN8RFDevice11RF625Device16GetUpperBoundaryEv @401
    _ZN8RFDevice11RF625Device16SetDifBrightnessEh @402
    _ZN8RFDevice11RF625Device16SetInterpolationEh @403
    _ZN8RFDevice11RF625Device16SetTCPPortNumberEt @404
    _ZN8RFDevice11RF625Device16SetUpperBoundaryEh @405
    _ZN8RFDevice11RF625Device16SetUpperBoundaryEt @406
    _ZN8RFDevice11RF625Device17GetEnableLocalSAPEv @407
    _ZN8RFDevice11RF625Device17GetKeepTCPEnabledEv @408
    _ZN8RFDevice11RF625Device17SetEnableLocalSAPEh @409
    _ZN8RFDevice11RF625Device17UDPPopulateParamsEv @410
    _ZN8RFDevice11RF625Device18GetDropCountersExtEv @411
    _ZN8RFDevice11RF625Device18GetDropCountersIntEv @412
    _ZN8RFDevice11RF625Device18SetDropCountersExtEh @413
    _ZN8RFDevice11RF625Device18SetDropCountersIntEh @414
    _ZN8RFDevice11RF625Device19GetAveragingEnabledEv @415
    _ZN8RFDevice11RF625Device19GetMeasurementDelayEv @416
    _ZN8RFDevice11RF625Device19GetNormalizedResultEPfPtS2_S2_ @417
    _ZN8RFDevice11RF625Device19GetUDPStreamEnabledEv @418
    _ZN8RFDevice11RF625Device19SetMeasurementDelayEh @419
    _ZN8RFDevice11RF625Device21ConvertResultToPointsEPvPfPtS3_S3_i @420
    _ZN8RFDevice11RF625Device22SetEnableInterpolationEi @421
    _ZN8RFDevice11RF625Device22UDPGetNormalizedResultEPfPtS2_S2_ @422
    _ZN8RFDevice11RF625Device23GetSignalProcessingTimeEv @423
    _ZN8RFDevice11RF625Device23SetSignalProcessingTimeEt @424
    _ZN8RFDevice11RF625Device24GetExternalSignalDivisorEv @425
    _ZN8RFDevice11RF625Device24SetExternalSignalDivisorEt @426
    _ZN8RFDevice11RF625Device31GetAnalogueOutputNumberOfPointsEv @427
    _ZN8RFDevice11RF625Device31SetAnalogueOutputNumberOfPointsEh @428
    _ZN8RFDevice11RF625Device32GetAnalogueOutputPointHoldupTimeEv @429
    _ZN8RFDevice11RF625Device32SetAnalogueOutputPointHoldupTimeEh @430
    _ZN8RFDevice11RF625Device6SetROIEitthh @431
    _ZN8RFDevice11RF625Device7SetSyncEtthtth @432
    _ZN8RFDevice11RF625Device8GetImageEPv @433
    _ZN8RFDevice11RF625Device8GetROIAHEv @434
    _ZN8RFDevice11RF625Device8GetROIAPEv @435
    _ZN8RFDevice11RF625Device8SetROIAHEh @436
    _ZN8RFDevice11RF625Device8SetROIAPEh @437
    _ZN8RFDevice11RF625Device9GetResultEPv @438
    _ZN8RFDevice11RF625Device9SetAnalogEih @439
    _ZN8RFDevice11RF625Device9SetFilterEit @440
    _ZN8RFDevice11RF625Device9SetSmoothEit @441
    _ZN8RFDevice11RF625DeviceC1EPNS_20_UDP_DEVINFOBLOCK_PCEm @442
    _ZN8RFDevice11RF625DeviceC1Em @443
    _ZN8RFDevice11RF625DeviceC2EPNS_20_UDP_DEVINFOBLOCK_PCEm @444
    _ZN8RFDevice11RF625DeviceC2Em @445
    _ZN8RFDevice11RF625DeviceD0Ev @446
    _ZN8RFDevice11RF625DeviceD1Ev @447
    _ZN8RFDevice11RF625DeviceD2Ev @448
    _ZN8RFDevice11RF651Device11MeasureDualEPtS1_ @449
    _ZN8RFDevice11RF651Device11SetDualModeEv @450
    _ZN8RFDevice11RF651Device17GetEndAnalogRangeEv @451
    _ZN8RFDevice11RF651Device17SetEndAnalogRangeEm @452
    _ZN8RFDevice11RF651Device19GetBeginAnalogRangeEv @453
    _ZN8RFDevice11RF651Device19SetBeginAnalogRangeEm @454
    _ZN8RFDevice11RF651DeviceC1Ev @455
    _ZN8RFDevice11RF651DeviceC2Ev @456
    _ZN8RFDevice11RF651DeviceD0Ev @457
    _ZN8RFDevice11RF651DeviceD1Ev @458
    _ZN8RFDevice11RF651DeviceD2Ev @459
    _ZN8RFDevice11RF656Device10GetUpLimitEv @460
    _ZN8RFDevice11RF656Device10SetUpLimitEm @461
    _ZN8RFDevice11RF656Device11GetLowLimitEv @462
    _ZN8RFDevice11RF656Device11MeasureDualEPtS1_ @463
    _ZN8RFDevice11RF656Device11SetLowLimitEm @464
    _ZN8RFDevice11RF656Device21GetOutputLogicControlEv @465
    _ZN8RFDevice11RF656Device21SetOutputLogicControlEm @466
    _ZN8RFDevice11RF656Device24GetControlBoundaryNumberEv @467
    _ZN8RFDevice11RF656Device24SetControlBoundaryNumberEm @468
    _ZN8RFDevice11RF656Device26GetResTypeBoundaryQuantityEv @469
    _ZN8RFDevice11RF656Device26SetResTypeBoundaryQuantityEm @470
    _ZN8RFDevice11RF656DeviceC1Ev @471
    _ZN8RFDevice11RF656DeviceC2Ev @472
    _ZN8RFDevice11RF656DeviceD0Ev @473
    _ZN8RFDevice11RF656DeviceD1Ev @474
    _ZN8RFDevice11RF656DeviceD2Ev @475
    _ZN8RFDevice11RF65xDevice10StopStreamEv @476
    _ZN8RFDevice11RF65xDevice11GetDebugArrEPvPj @477
    _ZN8RFDevice11RF65xDevice11GetPriorityEv @478
    _ZN8RFDevice11RF65xDevice11SetPriorityEh @479
    _ZN8RFDevice11RF65xDevice11StartStreamEv @480
    _ZN8RFDevice11RF65xDevice12EnableSensorEi @481
    _ZN8RFDevice11RF65xDevice12GetBaundRateEv @482
    _ZN8RFDevice11RF65xDevice12SetBaundRateEm @483
    _ZN8RFDevice11RF65xDevice12SetSynchTypeEh @484
    _ZN8RFDevice11RF65xDevice13GetMatrixSizeEv @485
    _ZN8RFDevice11RF65xDevice13GetPowerStateEv @486
    _ZN8RFDevice11RF65xDevice13NetAddressSetEv @487
    _ZN8RFDevice11RF65xDevice15GetAverageCountEv @488
    _ZN8RFDevice11RF65xDevice15GetNominalValueEv @489
    _ZN8RFDevice11RF65xDevice15SetAverageCountEm @490
    _ZN8RFDevice11RF65xDevice15SetNominalValueEm @491
    _ZN8RFDevice11RF65xDevice16EthernetOpenPortEv @492
    _ZN8RFDevice11RF65xDevice16GetSingleMeasureEPt @493
    _ZN8RFDevice11RF65xDevice16GetStreamMeasureEPt @494
    _ZN8RFDevice11RF65xDevice17GetNetworkAddressEv @495
    _ZN8RFDevice11RF65xDevice17GetSamplingPeriodEv @496
    _ZN8RFDevice11RF65xDevice17SetNetworkAddressEh @497
    _ZN8RFDevice11RF65xDevice17SetSamplingPeriodEm @498
    _ZN8RFDevice11RF65xDevice18BindNetworkAddressEh @499
    _ZN8RFDevice11RF65xDevice18WriteParameterBOOLEtPii @500
    _ZN8RFDevice11RF65xDevice18WriteParameterBYTEEtPhh @501
    _ZN8RFDevice11RF65xDevice19WriteParameterDWORDEtPmm @502
    _ZN8RFDevice11RF65xDevice21GetSingleDualMeasure8EPh @503
    _ZN8RFDevice11RF65xDevice21GetStreamDualMeasure8EPh @504
    _ZN8RFDevice11RF65xDevice24EthernetGetStreamMeasureEv @505
    _ZN8RFDevice11RF65xDevice8HelloCmdEv @506
    _ZN8RFDevice11RF65xDeviceC1Ev @507
    _ZN8RFDevice11RF65xDeviceC2Ev @508
    _ZN8RFDevice11RF65xDeviceD0Ev @509
    _ZN8RFDevice11RF65xDeviceD1Ev @510
    _ZN8RFDevice11RF65xDeviceD2Ev @511
    _ZN8RFDevice11RF701Device10DisconnectEv @512
    _ZN8RFDevice11RF701Device10PowerPost1Ei @513
    _ZN8RFDevice11RF701Device10PowerPost2Ei @514
    _ZN8RFDevice11RF701Device10PowerPost3Ei @515
    _ZN8RFDevice11RF701Device11CheckInputsEPh @516
    _ZN8RFDevice11RF701Device11PowerBeaconEi @517
    _ZN8RFDevice11RF701Device11PowerPost31Ei @518
    _ZN8RFDevice11RF701Device11PowerPost32Ei @519
    _ZN8RFDevice11RF701Device11ShieldPost1Ei @520
    _ZN8RFDevice11RF701Device11ShieldPost2Ei @521
    _ZN8RFDevice11RF701Device11ShieldPost3Ei @522
    _ZN8RFDevice11RF701Device12SendDatagramEjiPcj @523
    _ZN8RFDevice11RF701Device12ShieldPost31Ei @524
    _ZN8RFDevice11RF701Device12ShieldPost32Ei @525
    _ZN8RFDevice11RF701Device12TrainArrivalEv @526
    _ZN8RFDevice11RF701Device13StopSyncPost2Ev @527
    _ZN8RFDevice11RF701Device15EnableSyncPost2Ei @528
    _ZN8RFDevice11RF701Device15EnableSyncPost3Ei @529
    _ZN8RFDevice11RF701Device18SetPost2SyncParamsEtt @530
    _ZN8RFDevice11RF701Device18SetPost3SyncParamsEt @531
    _ZN8RFDevice11RF701Device28Debug_IgnorePowerStateChangeEi @532
    _ZN8RFDevice11RF701Device6ExecMxEhh @533
    _ZN8RFDevice11RF701Device7ConnectEPKct @534
    _ZN8RFDevice11RF701Device7ConnectEv @535
    _ZN8RFDevice11RF701Device8ReadTempEPs @536
    _ZN8RFDevice11RF701Device8TrainEndEv @537
    _ZN8RFDevice11RF701DeviceC1Ev @538
    _ZN8RFDevice11RF701DeviceC2Ev @539
    _ZN8RFDevice11RF701DeviceD0Ev @540
    _ZN8RFDevice11RF701DeviceD1Ev @541
    _ZN8RFDevice11RF701DeviceD2Ev @542
    _ZN8RFDevice11RF711Device16GetSingleMeasureEPiS1_ @543
    _ZN8RFDevice11RF711DeviceC1Ev @544
    _ZN8RFDevice11RF711DeviceC2Ev @545
    _ZN8RFDevice11RF711DeviceD0Ev @546
    _ZN8RFDevice11RF711DeviceD1Ev @547
    _ZN8RFDevice11RF711DeviceD2Ev @548
    _ZN8RFDevice12RF603BDevice24EthernetGetStreamMeasureEPNS_19_RF60xB_UDP_PACKET_E @549
    _ZN8RFDevice12RF603BDevice34EthernetGetNormalisedStreamMeasureEPf @550
    _ZN8RFDevice12RF603BDevice7CompareENS_18_RF60xB_UDP_VALUE_ES1_ @551
    _ZN8RFDevice12RF603BDeviceC1Ev @552
    _ZN8RFDevice12RF603BDeviceC2Ev @553
    _ZN8RFDevice12RF603BDeviceD0Ev @554
    _ZN8RFDevice12RF603BDeviceD1Ev @555
    _ZN8RFDevice12RF603BDeviceD2Ev @556
    _ZN8RFDevice12RF65xNDevice10GetReleaseEv @557
    _ZN8RFDevice12RF65xNDevice10SetReleaseEh @558
    _ZN8RFDevice12RF65xNDevice11BufferClearEv @559
    _ZN8RFDevice12RF65xNDevice11GetBaseDistEv @560
    _ZN8RFDevice12RF65xNDevice11GetEthSynchEv @561
    _ZN8RFDevice12RF65xNDevice11GetSourceIPEv @562
    _ZN8RFDevice12RF65xNDevice11GetSyncTypeEv @563
    _ZN8RFDevice12RF65xNDevice11SetBaseDistEm @564
    _ZN8RFDevice12RF65xNDevice11SetEthSynchEm @565
    _ZN8RFDevice12RF65xNDevice11SetSyncTypeEh @566
    _ZN8RFDevice12RF65xNDevice12GetAveragingEv @567
    _ZN8RFDevice12RF65xNDevice12SetEthDestIPEm @568
    _ZN8RFDevice12RF65xNDevice13GetNetAddressEv @569
    _ZN8RFDevice12RF65xNDevice13GetPowerStateEv @570
    _ZN8RFDevice12RF65xNDevice13GetResultTypeEv @571
    _ZN8RFDevice12RF65xNDevice13GetSubnetMaskEv @572
    _ZN8RFDevice12RF65xNDevice13SetNetAddressEh @573
    _ZN8RFDevice12RF65xNDevice13SetPowerStateEi @574
    _ZN8RFDevice12RF65xNDevice13SetResultTypeEm @575
    _ZN8RFDevice12RF65xNDevice14GetEthPackTypeEv @576
    _ZN8RFDevice12RF65xNDevice14GetRSBaundrateEv @577
    _ZN8RFDevice12RF65xNDevice14SetEthPackTypeEm @578
    _ZN8RFDevice12RF65xNDevice14SetEthSourceIPEm @579
    _ZN8RFDevice12RF65xNDevice14SetRSBaundrateEm @580
    _ZN8RFDevice12RF65xNDevice15GetAverageCountEv @581
    _ZN8RFDevice12RF65xNDevice15GetMaxToleranceEv @582
    _ZN8RFDevice12RF65xNDevice15GetMeasureRangeEv @583
    _ZN8RFDevice12RF65xNDevice15GetMinToleranceEv @584
    _ZN8RFDevice12RF65xNDevice15SetAverageCountEm @585
    _ZN8RFDevice12RF65xNDevice15SetMaxToleranceEm @586
    _ZN8RFDevice12RF65xNDevice15SetMeasureRangeEm @587
    _ZN8RFDevice12RF65xNDevice15SetMinToleranceEm @588
    _ZN8RFDevice12RF65xNDevice16GetOutLogicStateEv @589
    _ZN8RFDevice12RF65xNDevice16SetAveragingTypeEm @590
    _ZN8RFDevice12RF65xNDevice16SetEthSubnetMaskEm @591
    _ZN8RFDevice12RF65xNDevice16SetOutLogicStateEh @592
    _ZN8RFDevice12RF65xNDevice17GetAnalogOutSynchEv @593
    _ZN8RFDevice12RF65xNDevice17GetSamplingPeriodEv @594
    _ZN8RFDevice12RF65xNDevice17GetSingleMeasureNEPm @595
    _ZN8RFDevice12RF65xNDevice17GetStreamMeasureNEPm @596
    _ZN8RFDevice12RF65xNDevice17GetZeroPointValueEv @597
    _ZN8RFDevice12RF65xNDevice17SetAnalogOutSynchEm @598
    _ZN8RFDevice12RF65xNDevice17SetSamplingPeriodEm @599
    _ZN8RFDevice12RF65xNDevice17SetZeroPointValueEm @600
    _ZN8RFDevice12RF65xNDevice18GetABoundaryNumberEv @601
    _ZN8RFDevice12RF65xNDevice18GetBBoundaryNumberEv @602
    _ZN8RFDevice12RF65xNDevice18SetABoundaryNumberEm @603
    _ZN8RFDevice12RF65xNDevice18SetBBoundaryNumberEm @604
    _ZN8RFDevice12RF65xNDevice20GetEndAnalogOutRangeEv @605
    _ZN8RFDevice12RF65xNDevice20GetEthDestinationMACEv @606
    _ZN8RFDevice12RF65xNDevice20SetEndAnalogOutRangeEm @607
    _ZN8RFDevice12RF65xNDevice20SetEthDestinationMACEPh @608
    _ZN8RFDevice12RF65xNDevice21GetAnalogCalibrateLowEv @609
    _ZN8RFDevice12RF65xNDevice21SetAnalogCalibrateLowEm @610
    _ZN8RFDevice12RF65xNDevice22GetAnalogCalibrateHighEv @611
    _ZN8RFDevice12RF65xNDevice22GetBeginAnalogOutRangeEv @612
    _ZN8RFDevice12RF65xNDevice22SetAnalogCalibrateHighEm @613
    _ZN8RFDevice12RF65xNDevice22SetBeginAnalogOutRangeEm @614
    _ZN8RFDevice12RF65xNDevice25GetEthPackMeasureQuantityEv @615
    _ZN8RFDevice12RF65xNDevice25SetEthPackMeasureQuantityEm @616
    _ZN8RFDevice12RF65xNDevice33GetHumanReadableEthDestinationMACEv @617
    _ZN8RFDevice12RF65xNDevice33SetHumanReadableEthDestinationMACEPKc @618
    _ZN8RFDevice12RF65xNDevice7GetTypeEv @619
    _ZN8RFDevice12RF65xNDevice7SetTypeEh @620
    _ZN8RFDevice12RF65xNDevice9GetDestIPEv @621
    _ZN8RFDevice12RF65xNDevice9GetRSSyncEv @622
    _ZN8RFDevice12RF65xNDevice9SetRSSyncEm @623
    _ZN8RFDevice12RF65xNDeviceC1Ev @624
    _ZN8RFDevice12RF65xNDeviceC2Ev @625
    _ZN8RFDevice12RF65xNDeviceD0Ev @626
    _ZN8RFDevice12RF65xNDeviceD1Ev @627
    _ZN8RFDevice12RF65xNDeviceD2Ev @628
    _ZN8RFDevice13RF603HSDevice16EthernetOpenPortEv @629
    _ZN8RFDevice13RF603HSDevice24EthernetGetStreamMeasureEPNS_24_RF60xHS_MEASURE_PACKET_E @630
    _ZN8RFDevice13RF603HSDevice34EthernetGetNormalisedStreamMeasureEPfS1_ @631
    _ZN8RFDevice13RF603HSDeviceC1Ev @632
    _ZN8RFDevice13RF603HSDeviceC2Ev @633
    _ZN8RFDevice13RF603HSDeviceD0Ev @634
    _ZN8RFDevice13RF603HSDeviceD1Ev @635
    _ZN8RFDevice13RF603HSDeviceD2Ev @636
    _ZN8RFDevice14RFDeviceObjectC1Ev @637
    _ZN8RFDevice14RFDeviceObjectC2Ev @638
    _ZN8RFDevice14RFDeviceObjectD0Ev @639
    _ZN8RFDevice14RFDeviceObjectD1Ev @640
    _ZN8RFDevice14RFDeviceObjectD2Ev @641
    _ZN8RFDevice14RFSerialDevice10GetMeasureEhPhi @642
    _ZN8RFDevice14RFSerialDevice10LockResultEh @643
    _ZN8RFDevice14RFSerialDevice10StopStreamEh @644
    _ZN8RFDevice14RFSerialDevice11StartStreamEh @645
    _ZN8RFDevice14RFSerialDevice12FlushToFlashEh @646
    _ZN8RFDevice14RFSerialDevice12Serial_DelayEm @647
    _ZN8RFDevice14RFSerialDevice12ValidateDataEPhi @648
    _ZN8RFDevice14RFSerialDevice13AddPortHandleEPKcmP10SerialPort @649
    _ZN8RFDevice14RFSerialDevice13GetPortHandleEv @650
    _ZN8RFDevice14RFSerialDevice13ReadParameterEhtPm @651
    _ZN8RFDevice14RFSerialDevice14GetHelloAnswerEPNS_20_RFCOM_HELLO_ANSWER_E @652
    _ZN8RFDevice14RFSerialDevice14WriteParameterEhtm @653
    _ZN8RFDevice14RFSerialDevice16GetStreamMeasureEPt @654
    _ZN8RFDevice14RFSerialDevice16LookupPortHandleEPKcmP10SerialPort @655
    _ZN8RFDevice14RFSerialDevice16RemovePortHandleEP10SerialPort @656
    _ZN8RFDevice14RFSerialDevice16RestoreFromFlashEh @657
    _ZN8RFDevice14RFSerialDevice19ReadCustomParameterEhhhPv @658
    _ZN8RFDevice14RFSerialDevice20WriteCustomParameterEhhhPv @659
    _ZN8RFDevice14RFSerialDevice22fn_con_DEBUG_REGISTERSEhPNS_21_con_DEBUG_REGISTERS_E @660
    _ZN8RFDevice14RFSerialDevice23SetGetCustomSerialDelayEm @661
    _ZN8RFDevice14RFSerialDevice8HelloCmdEhPNS_20_RFCOM_HELLO_ANSWER_E @662
    _ZN8RFDevice14RFSerialDevice8OpenPortEPKcm @663
    _ZN8RFDevice14RFSerialDevice9ClosePortEv @664
    _ZN8RFDevice14RFSerialDevice9CustomCmdEPcmS1_Pm @665
    _ZN8RFDevice14RFSerialDeviceC1Ev @666
    _ZN8RFDevice14RFSerialDeviceC2Ev @667
    _ZN8RFDevice14RFSerialDeviceD0Ev @668
    _ZN8RFDevice14RFSerialDeviceD1Ev @669
    _ZN8RFDevice14RFSerialDeviceD2Ev @670
    _ZN8RFDevice16RFEthernetDevice9GetSocketEv @671
    _ZN8RFDevice16RFEthernetDeviceC1Ev @672
    _ZN8RFDevice16RFEthernetDeviceC2Ev @673
    _ZN8RFDevice16RFEthernetDeviceD0Ev @674
    _ZN8RFDevice16RFEthernetDeviceD1Ev @675
    _ZN8RFDevice16RFEthernetDeviceD2Ev @676
    _ZN8RFDevice16RFQDPMotorDevice10WriteParamEhmh @677
    _ZN8RFDevice16RFQDPMotorDevice11ExecCommandEhhPvhS1_h @678
    _ZN8RFDevice16RFQDPMotorDevice11GetBaudRateEv @679
    _ZN8RFDevice16RFQDPMotorDevice11GetMaxSpeedEv @680
    _ZN8RFDevice16RFQDPMotorDevice11GetStepModeEv @681
    _ZN8RFDevice16RFQDPMotorDevice11SetBaudRateEm @682
    _ZN8RFDevice16RFQDPMotorDevice11SetMaxSpeedEt @683
    _ZN8RFDevice16RFQDPMotorDevice11SetStepModeEh @684
    _ZN8RFDevice16RFQDPMotorDevice13GetAlarmFlagsEv @685
    _ZN8RFDevice16RFQDPMotorDevice13GetDeviceTypeEv @686
    _ZN8RFDevice16RFQDPMotorDevice13GetNetAddressEv @687
    _ZN8RFDevice16RFQDPMotorDevice13ReadAllParamsEPNS_19_RFQDPMOTOR_PARAMS_E @688
    _ZN8RFDevice16RFQDPMotorDevice13SetAlarmFlagsEt @689
    _ZN8RFDevice16RFQDPMotorDevice13SetNetAddressEh @690
    _ZN8RFDevice16RFQDPMotorDevice15GetSerialNumberEv @691
    _ZN8RFDevice16RFQDPMotorDevice16GetFullStepSpeedEv @692
    _ZN8RFDevice16RFQDPMotorDevice16SetFullStepSpeedEt @693
    _ZN8RFDevice16RFQDPMotorDevice18BindNetworkAddressEh @694
    _ZN8RFDevice16RFQDPMotorDevice22SetAllParamsToDefaultsEv @695
    _ZN8RFDevice16RFQDPMotorDevice4StopEv @696
    _ZN8RFDevice16RFQDPMotorDevice6GetACCEv @697
    _ZN8RFDevice16RFQDPMotorDevice6GetDCCEv @698
    _ZN8RFDevice16RFQDPMotorDevice6MoveToEl @699
    _ZN8RFDevice16RFQDPMotorDevice6SetACCEt @700
    _ZN8RFDevice16RFQDPMotorDevice6SetDCCEt @701
    _ZN8RFDevice16RFQDPMotorDevice7GetHoldEv @702
    _ZN8RFDevice16RFQDPMotorDevice7SetHoldEi @703
    _ZN8RFDevice16RFQDPMotorDevice8GetAccelEv @704
    _ZN8RFDevice16RFQDPMotorDevice8GetSpeedEv @705
    _ZN8RFDevice16RFQDPMotorDevice8GetSysSWEv @706
    _ZN8RFDevice16RFQDPMotorDevice8GoToZeroEv @707
    _ZN8RFDevice16RFQDPMotorDevice8HelloCmdEv @708
    _ZN8RFDevice16RFQDPMotorDevice8SetAccelEh @709
    _ZN8RFDevice16RFQDPMotorDevice8SetSpeedEm @710
    _ZN8RFDevice16RFQDPMotorDevice9GetConfigEv @711
    _ZN8RFDevice16RFQDPMotorDevice9ReadParamEhPvh @712
    _ZN8RFDevice16RFQDPMotorDevice9SetConfigEm @713
    _ZN8RFDevice16RFQDPMotorDeviceC1Ev @714
    _ZN8RFDevice16RFQDPMotorDeviceC2Ev @715
    _ZN8RFDevice16RFQDPMotorDeviceD0Ev @716
    _ZN8RFDevice16RFQDPMotorDeviceD1Ev @717
    _ZN8RFDevice16RFQDPMotorDeviceD2Ev @718
    _ZN8RFDevice18RF625Device_Legacy10DisconnectEv @719
    _ZN8RFDevice18RF625Device_Legacy10ReadParamsEPv @720
    _ZN8RFDevice18RF625Device_Legacy10ReadParamsEv @721
    _ZN8RFDevice18RF625Device_Legacy10UDPConnectEPKc @722
    _ZN8RFDevice18RF625Device_Legacy10UDPConnectEtPKc @723
    _ZN8RFDevice18RF625Device_Legacy11FlushParamsEi @724
    _ZN8RFDevice18RF625Device_Legacy11GetDevBlockEv @725
    _ZN8RFDevice18RF625Device_Legacy11WriteParamsEPvii @726
    _ZN8RFDevice18RF625Device_Legacy11WriteParamsEii @727
    _ZN8RFDevice18RF625Device_Legacy12GetFrequencyEv @728
    _ZN8RFDevice18RF625Device_Legacy12SetFrequencyEh @729
    _ZN8RFDevice18RF625Device_Legacy12UDPGetResultEPv @730
    _ZN8RFDevice18RF625Device_Legacy13GetLaserLevelEv @731
    _ZN8RFDevice18RF625Device_Legacy13GetModbusInfoEPNS_20_RF620HS_MODBUS_INFOE @732
    _ZN8RFDevice18RF625Device_Legacy13SetLaserLevelEh @733
    _ZN8RFDevice18RF625Device_Legacy13SetModbusInfoEPNS_20_RF620HS_MODBUS_INFOE @734
    _ZN8RFDevice18RF625Device_Legacy13UDPDisconnectEv @735
    _ZN8RFDevice18RF625Device_Legacy14GetNetworkMaskEv @736
    _ZN8RFDevice18RF625Device_Legacy14GetWindowWidthEv @737
    _ZN8RFDevice18RF625Device_Legacy14PopulateParamsEv @738
    _ZN8RFDevice18RF625Device_Legacy14SetNetworkMaskEPh @739
    _ZN8RFDevice18RF625Device_Legacy14SetWindowWidthEh @740
    _ZN8RFDevice18RF625Device_Legacy15CloneParametersEPS0_ @741
    _ZN8RFDevice18RF625Device_Legacy15GetAutoExposureEPt @742
    _ZN8RFDevice18RF625Device_Legacy15GetBaseDistanceEv @743
    _ZN8RFDevice18RF625Device_Legacy15GetExposureTimeEv @744
    _ZN8RFDevice18RF625Device_Legacy15GetLeftBoundaryEv @745
    _ZN8RFDevice18RF625Device_Legacy15GetSerialNumberEv @746
    _ZN8RFDevice18RF625Device_Legacy15GetWindowHeightEv @747
    _ZN8RFDevice18RF625Device_Legacy15SetExposureTimeEt @748
    _ZN8RFDevice18RF625Device_Legacy15SetLeftBoundaryEh @749
    _ZN8RFDevice18RF625Device_Legacy15SetWindowHeightEh @750
    _ZN8RFDevice18RF625Device_Legacy16GetHostIPAddressEv @751
    _ZN8RFDevice18RF625Device_Legacy16GetModbusTcpPortEv @752
    _ZN8RFDevice18RF625Device_Legacy16GetRotationAngleEv @753
    _ZN8RFDevice18RF625Device_Legacy16GetUpperBoundaryEv @754
    _ZN8RFDevice18RF625Device_Legacy16ReadParamsToFileEPKc @755
    _ZN8RFDevice18RF625Device_Legacy16SetHostIPAddressEPh @756
    _ZN8RFDevice18RF625Device_Legacy16SetModbusTcpPortEt @757
    _ZN8RFDevice18RF625Device_Legacy16SetRotationAngleEs @758
    _ZN8RFDevice18RF625Device_Legacy16SetUpperBoundaryEh @759
    _ZN8RFDevice18RF625Device_Legacy16UDPPacketCounterEPv @760
    _ZN8RFDevice18RF625Device_Legacy17GetHostPortNumberEv @761
    _ZN8RFDevice18RF625Device_Legacy17SetHostPortNumberEt @762
    _ZN8RFDevice18RF625Device_Legacy17UDPPopulateParamsEv @763
    _ZN8RFDevice18RF625Device_Legacy18GetDeviceIPAddressEv @764
    _ZN8RFDevice18RF625Device_Legacy18GetFirmwareVersionEv @765
    _ZN8RFDevice18RF625Device_Legacy18SetDeviceIPAddressEPh @766
    _ZN8RFDevice18RF625Device_Legacy18SetEnableModbusTcpEi @767
    _ZN8RFDevice18RF625Device_Legacy19GetAutoExposureModeEv @768
    _ZN8RFDevice18RF625Device_Legacy19GetDevicePortNumberEv @769
    _ZN8RFDevice18RF625Device_Legacy19GetEnabledModbusTcpEv @770
    _ZN8RFDevice18RF625Device_Legacy19GetMeasurementDelayEv @771
    _ZN8RFDevice18RF625Device_Legacy19GetModbusTcpAddressEv @772
    _ZN8RFDevice18RF625Device_Legacy19GetNormalizedResultEPfPtS2_S2_ @773
    _ZN8RFDevice18RF625Device_Legacy19SetAutoExposureModeEh @774
    _ZN8RFDevice18RF625Device_Legacy19SetDevicePortNumberEt @775
    _ZN8RFDevice18RF625Device_Legacy19SetEnableLegacyModeEi @776
    _ZN8RFDevice18RF625Device_Legacy19SetMeasurementDelayEh @777
    _ZN8RFDevice18RF625Device_Legacy19SetModbusTcpAddressEPh @778
    _ZN8RFDevice18RF625Device_Legacy19WriteParamsFromFileEPKc @779
    _ZN8RFDevice18RF625Device_Legacy20GetEnabledLegacyModeEv @780
    _ZN8RFDevice18RF625Device_Legacy20GetMeasurementRangeZEv @781
    _ZN8RFDevice18RF625Device_Legacy21ConvertResultToPointsEPvPfPtS3_S3_i @782
    _ZN8RFDevice18RF625Device_Legacy21SetEnableRawImageModeEi @783
    _ZN8RFDevice18RF625Device_Legacy22GetCapsLaserModulationEv @784
    _ZN8RFDevice18RF625Device_Legacy22GetEnabledRawImageModeEv @785
    _ZN8RFDevice18RF625Device_Legacy22SetEnableInterpolationEi @786
    _ZN8RFDevice18RF625Device_Legacy22UDPGetNormalizedResultEPfPtS2_S2_ @787
    _ZN8RFDevice18RF625Device_Legacy23GetEnabledInterpolationEv @788
    _ZN8RFDevice18RF625Device_Legacy23GetMeasurementRangeXEMREv @789
    _ZN8RFDevice18RF625Device_Legacy23GetMeasurementRangeXSMREv @790
    _ZN8RFDevice18RF625Device_Legacy23GetSignalProcessingTimeEv @791
    _ZN8RFDevice18RF625Device_Legacy23SetSignalProcessingTimeEt @792
    _ZN8RFDevice18RF625Device_Legacy24GetActualDeviceIPAddressEv @793
    _ZN8RFDevice18RF625Device_Legacy24GetExternalSignalDivisorEv @794
    _ZN8RFDevice18RF625Device_Legacy24SetExternalSignalDivisorEh @795
    _ZN8RFDevice18RF625Device_Legacy25GetAnalogueOutputSyncEdgeEv @796
    _ZN8RFDevice18RF625Device_Legacy25GetCapsExternalResultSyncEv @797
    _ZN8RFDevice18RF625Device_Legacy25GetExternalResultSyncEdgeEv @798
    _ZN8RFDevice18RF625Device_Legacy25GetResultInclinationAngleEv @799
    _ZN8RFDevice18RF625Device_Legacy25SetAnalogueOutputSyncEdgeEi @800
    _ZN8RFDevice18RF625Device_Legacy25SetExternalResultSyncEdgeEi @801
    _ZN8RFDevice18RF625Device_Legacy27GetHumanReadableNetworkMaskEv @802
    _ZN8RFDevice18RF625Device_Legacy27GetPixelBrightnessThresholdEv @803
    _ZN8RFDevice18RF625Device_Legacy27SetPixelBrightnessThresholdEh @804
    _ZN8RFDevice18RF625Device_Legacy28GetAnalogueOutputSyncEnabledEv @805
    _ZN8RFDevice18RF625Device_Legacy28GetExternalResultSyncEnabledEv @806
    _ZN8RFDevice18RF625Device_Legacy28SetAnalogueOutputSyncEnabledEi @807
    _ZN8RFDevice18RF625Device_Legacy28SetExternalResultSyncEnabledEi @808
    _ZN8RFDevice18RF625Device_Legacy29GetHumanReadableHostIPAddressEv @809
    _ZN8RFDevice18RF625Device_Legacy30GetAnalogueOutputTTL_OUT0LevelEv @810
    _ZN8RFDevice18RF625Device_Legacy30GetCapsAnalogueOutputByCurrentEv @811
    _ZN8RFDevice18RF625Device_Legacy30GetCapsAnalogueOutputByVoltageEv @812
    _ZN8RFDevice18RF625Device_Legacy30GetCapsExternalMeasurementSyncEv @813
    _ZN8RFDevice18RF625Device_Legacy30GetExternalMeasurementSyncEdgeEv @814
    _ZN8RFDevice18RF625Device_Legacy30SetAnalogueOutputTTL_OUT0LevelEi @815
    _ZN8RFDevice18RF625Device_Legacy30SetExternalMeasurementSyncEdgeEi @816
    _ZN8RFDevice18RF625Device_Legacy31GetAnalogueOutputNumberOfPointsEv @817
    _ZN8RFDevice18RF625Device_Legacy31GetHumanReadableDeviceIPAddressEv @818
    _ZN8RFDevice18RF625Device_Legacy31SetAnalogueOutputNumberOfPointsEh @819
    _ZN8RFDevice18RF625Device_Legacy32GetAnalogueOutputPointHoldupTimeEv @820
    _ZN8RFDevice18RF625Device_Legacy32GetHumanReadableModbusTcpAddressEv @821
    _ZN8RFDevice18RF625Device_Legacy32SetAnalogueOutputPointHoldupTimeEh @822
    _ZN8RFDevice18RF625Device_Legacy33GetExternalMeasurementSyncEnabledEv @823
    _ZN8RFDevice18RF625Device_Legacy33SetExternalMeasurementSyncEnabledEi @824
    _ZN8RFDevice18RF625Device_Legacy37GetHumanReadableActualDeviceIPAddressEv @825
    _ZN8RFDevice18RF625Device_Legacy6RebootEv @826
    _ZN8RFDevice18RF625Device_Legacy7ConnectEPNS_20_UDP_DEVINFOBLOCK_PCE @827
    _ZN8RFDevice18RF625Device_Legacy7ConnectEv @828
    _ZN8RFDevice18RF625Device_Legacy8GetImageEPv @829
    _ZN8RFDevice18RF625Device_Legacy8PingTestEv @830
    _ZN8RFDevice18RF625Device_Legacy8PowerOffEv @831
    _ZN8RFDevice18RF625Device_Legacy9CalcAngleEPv @832
    _ZN8RFDevice18RF625Device_Legacy9GetResultEPv @833
    _ZN8RFDevice18RF625Device_LegacyC1EPNS_20_UDP_DEVINFOBLOCK_PCE @834
    _ZN8RFDevice18RF625Device_LegacyC1Ev @835
    _ZN8RFDevice18RF625Device_LegacyC2EPNS_20_UDP_DEVINFOBLOCK_PCE @836
    _ZN8RFDevice18RF625Device_LegacyC2Ev @837
    _ZN8RFDevice18RF625Device_LegacyD0Ev @838
    _ZN8RFDevice18RF625Device_LegacyD1Ev @839
    _ZN8RFDevice18RF625Device_LegacyD2Ev @840
    _ZN8RFDevice18RFEthernetDetector11GetDevBlockEi @841
    _ZN8RFDevice18RFEthernetDetector19SetCustomPortNumberEt @842
    _ZN8RFDevice18RFEthernetDetector19UDP_Info_LookRecordEPNS_17_UDP_DEVINFOBLOCKEPNS_20_UDP_DEVINFOBLOCK_PCE @843
    _ZN8RFDevice18RFEthernetDetector5ClearEv @844
    _ZN8RFDevice18RFEthernetDetector6SearchEti @845
    _ZN8RFDevice18RFEthernetDetector7GetSizeEv @846
    _ZN8RFDevice18RFEthernetDetectorC1Et @847
    _ZN8RFDevice18RFEthernetDetectorC1Ev @848
    _ZN8RFDevice18RFEthernetDetectorC2Et @849
    _ZN8RFDevice18RFEthernetDetectorC2Ev @850
    _ZN8RFDevice18RFEthernetDetectorD1Ev @851
    _ZN8RFDevice18RFEthernetDetectorD2Ev @852
    _ZN8RFDevice18RFEthernetDetectorixEi @853
    _ZNK8RFDevice11RF096Device13GetNetAddressEv @854
    _ZNK8RFDevice11RF096Device15GetAssemblyTypeEv @855
    _ZNK8RFDevice11RF60xDevice9GetParamsEv @856
    _ZNK8RFDevice11RF65xDevice9GetParamsEv @857
    _ZTIN8RFDevice11RF060DeviceE @858 DATA
    _ZTIN8RFDevice11RF085DeviceE @859 DATA
    _ZTIN8RFDevice11RF096DeviceE @860 DATA
    _ZTIN8RFDevice11RF256DeviceE @861 DATA
    _ZTIN8RFDevice11RF25xDeviceE @862 DATA
    _ZTIN8RFDevice11RF603DeviceE @863 DATA
    _ZTIN8RFDevice11RF605DeviceE @864 DATA
    _ZTIN8RFDevice11RF60xDeviceE @865 DATA
    _ZTIN8RFDevice11RF620DeviceE @866 DATA
    _ZTIN8RFDevice11RF625DeviceE @867 DATA
    _ZTIN8RFDevice11RF651DeviceE @868 DATA
    _ZTIN8RFDevice11RF656DeviceE @869 DATA
    _ZTIN8RFDevice11RF65xDeviceE @870 DATA
    _ZTIN8RFDevice11RF701DeviceE @871 DATA
    _ZTIN8RFDevice11RF711DeviceE @872 DATA
    _ZTIN8RFDevice12RF603BDeviceE @873 DATA
    _ZTIN8RFDevice12RF65xNDeviceE @874 DATA
    _ZTIN8RFDevice13RF603HSDeviceE @875 DATA
    _ZTIN8RFDevice14RFDeviceObjectE @876 DATA
    _ZTIN8RFDevice14RFSerialDeviceE @877 DATA
    _ZTIN8RFDevice16RFEthernetDeviceE @878 DATA
    _ZTIN8RFDevice16RFQDPMotorDeviceE @879 DATA
    _ZTIN8RFDevice18RF625Device_LegacyE @880 DATA
    _ZTVN8RFDevice11RF060DeviceE @881 DATA
    _ZTVN8RFDevice11RF085DeviceE @882 DATA
    _ZTVN8RFDevice11RF096DeviceE @883 DATA
    _ZTVN8RFDevice11RF256DeviceE @884 DATA
    _ZTVN8RFDevice11RF25xDeviceE @885 DATA
    _ZTVN8RFDevice11RF603DeviceE @886 DATA
    _ZTVN8RFDevice11RF605DeviceE @887 DATA
    _ZTVN8RFDevice11RF60xDeviceE @888 DATA
    _ZTVN8RFDevice11RF620DeviceE @889 DATA
    _ZTVN8RFDevice11RF625DeviceE @890 DATA
    _ZTVN8RFDevice11RF651DeviceE @891 DATA
    _ZTVN8RFDevice11RF656DeviceE @892 DATA
    _ZTVN8RFDevice11RF65xDeviceE @893 DATA
    _ZTVN8RFDevice11RF701DeviceE @894 DATA
    _ZTVN8RFDevice11RF711DeviceE @895 DATA
    _ZTVN8RFDevice12RF603BDeviceE @896 DATA
    _ZTVN8RFDevice12RF65xNDeviceE @897 DATA
    _ZTVN8RFDevice13RF603HSDeviceE @898 DATA
    _ZTVN8RFDevice14RFDeviceObjectE @899 DATA
    _ZTVN8RFDevice14RFSerialDeviceE @900 DATA
    _ZTVN8RFDevice16RFEthernetDeviceE @901 DATA
    _ZTVN8RFDevice16RFQDPMotorDeviceE @902 DATA
    _ZTVN8RFDevice18RF625Device_LegacyE @903 DATA
